target datalayout = "e-m:e-p270:32:32-p271:32:32-p272:64:64-i64:64-i128:128-f80:128-n8:16:32:64-S128"
target triple = "x86_64-pc-linux-gnu"

%struct.expert_field = type { i32, i32 }

@hf_gdsdb_info_object = internal global i32 0, align 4
@hf_gdsdb_info_incarnation = internal global i32 0, align 4
@hf_gdsdb_info_items = internal global i32 0, align 4
@hf_gdsdb_info_recv_items = internal global i32 0, align 4
@hf_gdsdb_info_buffer_length = internal global i32 0, align 4
@ei_gdsdb_invalid_length = internal global %struct.expert_field zeroinitializer, align 4
@.str.281 = private unnamed_addr constant [19 x i8] c"Invalid length: %d\00", align 1

; Function Attrs: nounwind uwtable
define internal i32 @add_uint_string(ptr noundef %0, i32 noundef %1, ptr noundef %2, i32 noundef %3) #0 {
  %5 = alloca i32, align 4
  %6 = alloca ptr, align 8
  %7 = alloca i32, align 4
  %8 = alloca ptr, align 8
  %9 = alloca i32, align 4
  %10 = alloca ptr, align 8
  %11 = alloca i32, align 4
  %12 = alloca i32, align 4
  store ptr %0, ptr %6, align 8
  store i32 %1, ptr %7, align 4
  store ptr %2, ptr %8, align 8
  store i32 %3, ptr %9, align 4
  %13 = load ptr, ptr %6, align 8
  %14 = load i32, ptr %7, align 4
  %15 = load ptr, ptr %8, align 8
  %16 = load i32, ptr %9, align 4
  %17 = call ptr @proto_tree_add_item(ptr noundef %13, i32 noundef %14, ptr noundef %15, i32 noundef %16, i32 noundef 4, i32 noundef 0)
  store ptr %17, ptr %10, align 8
  %18 = load ptr, ptr %8, align 8
  %19 = load i32, ptr %9, align 4
  %20 = call i32 @tvb_get_ntohl(ptr noundef %18, i32 noundef %19)
  %21 = call i32 @dword_align(i32 noundef %20)
  %22 = add i32 %21, 4
  store i32 %22, ptr %11, align 4
  %23 = load ptr, ptr %10, align 8
  %24 = load i32, ptr %11, align 4
  call void @proto_item_set_len(ptr noundef %23, i32 noundef %24)
  %25 = load i32, ptr %9, align 4
  %26 = load i32, ptr %11, align 4
  %27 = add i32 %25, %26
  store i32 %27, ptr %12, align 4
  %28 = load i32, ptr %11, align 4
  %29 = icmp slt i32 %28, 4
  br i1 %29, label %34, label %30

30:                                               ; preds = %4
  %31 = load i32, ptr %12, align 4
  %32 = load i32, ptr %9, align 4
  %33 = icmp slt i32 %31, %32
  br i1 %33, label %34, label %40

34:                                               ; preds = %30, %4
  %35 = load ptr, ptr %10, align 8
  %36 = load i32, ptr %11, align 4
  %37 = call ptr (ptr, ptr, ptr, ptr, ...) @expert_add_info_format(ptr noundef null, ptr noundef %35, ptr noundef @ei_gdsdb_invalid_length, ptr noundef @.str.281, i32 noundef %36)
  %38 = load ptr, ptr %8, align 8
  %39 = call i32 @tvb_reported_length(ptr noundef %38)
  store i32 %39, ptr %5, align 4
  br label %42

40:                                               ; preds = %30
  %41 = load i32, ptr %12, align 4
  store i32 %41, ptr %5, align 4
  br label %42

42:                                               ; preds = %40, %34
  %43 = load i32, ptr %5, align 4
  ret i32 %43
}

; Function Attrs: nounwind uwtable
define internal i32 @dword_align(i32 noundef %0) #0 {
  %2 = alloca i32, align 4
  store i32 %0, ptr %2, align 4
  %3 = load i32, ptr %2, align 4
  %4 = load i32, ptr %2, align 4
  %5 = and i32 %4, 3
  %6 = sub i32 4, %5
  %7 = add i32 %3, %6
  ret i32 %7
}

; Function Attrs: nounwind uwtable
define internal i32 @gdsdb_info(ptr noundef %0, ptr noundef %1, ptr noundef %2, i32 noundef %3) #0 {
  %5 = alloca i32, align 4
  %6 = alloca ptr, align 8
  %7 = alloca ptr, align 8
  %8 = alloca ptr, align 8
  %9 = alloca i32, align 4
  %10 = alloca i32, align 4
  %11 = alloca i32, align 4
  %12 = alloca i32, align 4
  store ptr %0, ptr %6, align 8
  store ptr %1, ptr %7, align 8
  store ptr %2, ptr %8, align 8
  store i32 %3, ptr %9, align 4
  store i32 16, ptr %11, align 4
  %13 = load ptr, ptr %6, align 8
  %14 = load i32, ptr %9, align 4
  %15 = call i32 @tvb_reported_length_remaining(ptr noundef %13, i32 noundef %14)
  store i32 %15, ptr %12, align 4
  %16 = load i32, ptr %12, align 4
  %17 = load i32, ptr %11, align 4
  %18 = icmp slt i32 %16, %17
  br i1 %18, label %19, label %20

19:                                               ; preds = %4
  store i32 -1, ptr %5, align 4
  br label %91

20:                                               ; preds = %4
  %21 = load ptr, ptr %6, align 8
  %22 = load i32, ptr %9, align 4
  %23 = sub i32 %22, 4
  %24 = call i32 @tvb_get_ntohl(ptr noundef %21, i32 noundef %23)
  store i32 %24, ptr %10, align 4
  %25 = load ptr, ptr %6, align 8
  %26 = load i32, ptr %9, align 4
  %27 = add i32 %26, 8
  %28 = call i32 @tvb_get_ntohl(ptr noundef %25, i32 noundef %27)
  %29 = call i32 @dword_align(i32 noundef %28)
  %30 = load i32, ptr %11, align 4
  %31 = add i32 %30, %29
  store i32 %31, ptr %11, align 4
  %32 = load i32, ptr %12, align 4
  %33 = load i32, ptr %11, align 4
  %34 = icmp slt i32 %32, %33
  br i1 %34, label %35, label %36

35:                                               ; preds = %20
  store i32 -1, ptr %5, align 4
  br label %91

36:                                               ; preds = %20
  %37 = load i32, ptr %10, align 4
  %38 = icmp eq i32 %37, 84
  br i1 %38, label %39, label %54

39:                                               ; preds = %36
  %40 = load ptr, ptr %6, align 8
  %41 = load i32, ptr %9, align 4
  %42 = load i32, ptr %11, align 4
  %43 = add i32 %41, %42
  %44 = sub i32 %43, 8
  %45 = call i32 @tvb_get_ntohl(ptr noundef %40, i32 noundef %44)
  %46 = call i32 @dword_align(i32 noundef %45)
  %47 = load i32, ptr %11, align 4
  %48 = add i32 %47, %46
  store i32 %48, ptr %11, align 4
  %49 = load i32, ptr %12, align 4
  %50 = load i32, ptr %11, align 4
  %51 = icmp slt i32 %49, %50
  br i1 %51, label %52, label %53

52:                                               ; preds = %39
  store i32 -1, ptr %5, align 4
  br label %91

53:                                               ; preds = %39
  br label %54

54:                                               ; preds = %53, %36
  %55 = load ptr, ptr %8, align 8
  %56 = load i32, ptr @hf_gdsdb_info_object, align 4
  %57 = load ptr, ptr %6, align 8
  %58 = load i32, ptr %9, align 4
  %59 = call ptr @proto_tree_add_item(ptr noundef %55, i32 noundef %56, ptr noundef %57, i32 noundef %58, i32 noundef 4, i32 noundef 0)
  %60 = load i32, ptr %9, align 4
  %61 = add i32 %60, 4
  store i32 %61, ptr %9, align 4
  %62 = load ptr, ptr %8, align 8
  %63 = load i32, ptr @hf_gdsdb_info_incarnation, align 4
  %64 = load ptr, ptr %6, align 8
  %65 = load i32, ptr %9, align 4
  %66 = call ptr @proto_tree_add_item(ptr noundef %62, i32 noundef %63, ptr noundef %64, i32 noundef %65, i32 noundef 4, i32 noundef 0)
  %67 = load i32, ptr %9, align 4
  %68 = add i32 %67, 4
  store i32 %68, ptr %9, align 4
  %69 = load ptr, ptr %8, align 8
  %70 = load i32, ptr @hf_gdsdb_info_items, align 4
  %71 = load ptr, ptr %6, align 8
  %72 = load i32, ptr %9, align 4
  %73 = call i32 @add_uint_string(ptr noundef %69, i32 noundef %70, ptr noundef %71, i32 noundef %72)
  store i32 %73, ptr %9, align 4
  %74 = load i32, ptr %10, align 4
  %75 = icmp eq i32 %74, 84
  br i1 %75, label %76, label %82

76:                                               ; preds = %54
  %77 = load ptr, ptr %8, align 8
  %78 = load i32, ptr @hf_gdsdb_info_recv_items, align 4
  %79 = load ptr, ptr %6, align 8
  %80 = load i32, ptr %9, align 4
  %81 = call i32 @add_uint_string(ptr noundef %77, i32 noundef %78, ptr noundef %79, i32 noundef %80)
  store i32 %81, ptr %9, align 4
  br label %82

82:                                               ; preds = %76, %54
  %83 = load ptr, ptr %8, align 8
  %84 = load i32, ptr @hf_gdsdb_info_buffer_length, align 4
  %85 = load ptr, ptr %6, align 8
  %86 = load i32, ptr %9, align 4
  %87 = call ptr @proto_tree_add_item(ptr noundef %83, i32 noundef %84, ptr noundef %85, i32 noundef %86, i32 noundef 4, i32 noundef 0)
  %88 = load i32, ptr %9, align 4
  %89 = add i32 %88, 4
  store i32 %89, ptr %9, align 4
  %90 = load i32, ptr %9, align 4
  store i32 %90, ptr %5, align 4
  br label %91

91:                                               ; preds = %82, %52, %35, %19
  %92 = load i32, ptr %5, align 4
  ret i32 %92
}