; Function Attrs: nounwind uwtable
define internal noundef i32 @gdsdb_info(ptr noundef %0, ptr readnone captures(none) %1, ptr noundef %2, i32 noundef %3) #0 {
  %5 = tail call i32 @tvb_reported_length_remaining(ptr noundef %0, i32 noundef %3) #3
  %6 = icmp slt i32 %5, 16
  br i1 %6, label %55, label %7

7:                                                ; preds = %4
  %8 = add i32 %3, -4
  %9 = tail call i32 @tvb_get_ntohl(ptr noundef %0, i32 noundef %8) #3
  %10 = add i32 %3, 8
  %11 = tail call i32 @tvb_get_ntohl(ptr noundef %0, i32 noundef %10) #3
  %reass.sub.i = and i32 %11, -4
  %12 = add i32 %reass.sub.i, 20
  %13 = icmp slt i32 %5, %12
  br i1 %13, label %55, label %14

14:                                               ; preds = %7
  %15 = icmp eq i32 %9, 84
  br i1 %15, label %16, label %23

16:                                               ; preds = %14
  %17 = add i32 %3, -8
  %18 = add i32 %17, %12
  %19 = tail call i32 @tvb_get_ntohl(ptr noundef %0, i32 noundef %18) #3
  %reass.sub.i41 = and i32 %19, -4
  %20 = add i32 %reass.sub.i, 24
  %21 = add i32 %20, %reass.sub.i41
  %22 = icmp slt i32 %5, %21
  br i1 %22, label %55, label %23

23:                                               ; preds = %16, %14
  %24 = load i32, ptr @hf_gdsdb_info_object, align 4
  %25 = tail call ptr @proto_tree_add_item(ptr noundef %2, i32 noundef %24, ptr noundef %0, i32 noundef %3, i32 noundef 4, i32 noundef 0) #3
  %26 = add i32 %3, 4
  %27 = load i32, ptr @hf_gdsdb_info_incarnation, align 4
  %28 = tail call ptr @proto_tree_add_item(ptr noundef %2, i32 noundef %27, ptr noundef %0, i32 noundef %26, i32 noundef 4, i32 noundef 0) #3
  %29 = load i32, ptr @hf_gdsdb_info_items, align 4
  %30 = tail call ptr @proto_tree_add_item(ptr noundef %2, i32 noundef %29, ptr noundef %0, i32 noundef %10, i32 noundef 4, i32 noundef 0) #3
  %31 = tail call i32 @tvb_get_ntohl(ptr noundef %0, i32 noundef %10) #3
  %reass.sub.i.i = and i32 %31, -4
  %32 = add i32 %reass.sub.i.i, 8
  tail call void @proto_item_set_len(ptr noundef %30, i32 noundef %32) #3
  %33 = add i32 %32, %10
  %34 = add i32 %31, -2147483640
  %35 = icmp ult i32 %34, -2147483644
  %36 = icmp slt i32 %33, %10
  %or.cond.i = or i1 %35, %36
  br i1 %or.cond.i, label %37, label %add_uint_string.exit

37:                                               ; preds = %23
  %38 = tail call ptr (ptr, ptr, ptr, ptr, ...) @expert_add_info_format(ptr noundef null, ptr noundef %30, ptr noundef nonnull @ei_gdsdb_invalid_length, ptr noundef nonnull @.str.281, i32 noundef %32) #3
  %39 = tail call i32 @tvb_reported_length(ptr noundef %0) #3
  br label %add_uint_string.exit

add_uint_string.exit:                             ; preds = %23, %37
  %.0.i = phi i32 [ %39, %37 ], [ %33, %23 ]
  br i1 %15, label %40, label %add_uint_string.exit45

40:                                               ; preds = %add_uint_string.exit
  %41 = load i32, ptr @hf_gdsdb_info_recv_items, align 4
  %42 = tail call ptr @proto_tree_add_item(ptr noundef %2, i32 noundef %41, ptr noundef %0, i32 noundef %.0.i, i32 noundef 4, i32 noundef 0) #3
  %43 = tail call i32 @tvb_get_ntohl(ptr noundef %0, i32 noundef %.0.i) #3
  %reass.sub.i.i42 = and i32 %43, -4
  %44 = add i32 %reass.sub.i.i42, 8
  tail call void @proto_item_set_len(ptr noundef %42, i32 noundef %44) #3
  %45 = add i32 %44, %.0.i
  %46 = add i32 %43, -2147483640
  %47 = icmp ult i32 %46, -2147483644
  %48 = icmp slt i32 %45, %.0.i
  %or.cond.i43 = or i1 %47, %48
  br i1 %or.cond.i43, label %49, label %add_uint_string.exit45

49:                                               ; preds = %40
  %50 = tail call ptr (ptr, ptr, ptr, ptr, ...) @expert_add_info_format(ptr noundef null, ptr noundef %42, ptr noundef nonnull @ei_gdsdb_invalid_length, ptr noundef nonnull @.str.281, i32 noundef %44) #3
  %51 = tail call i32 @tvb_reported_length(ptr noundef %0) #3
  br label %add_uint_string.exit45

add_uint_string.exit45:                           ; preds = %49, %40, %add_uint_string.exit
  %.038 = phi i32 [ %.0.i, %add_uint_string.exit ], [ %51, %49 ], [ %45, %40 ]
  %52 = load i32, ptr @hf_gdsdb_info_buffer_length, align 4
  %53 = tail call ptr @proto_tree_add_item(ptr noundef %2, i32 noundef %52, ptr noundef %0, i32 noundef %.038, i32 noundef 4, i32 noundef 0) #3
  %54 = add i32 %.038, 4
  br label %55

55:                                               ; preds = %16, %7, %4, %add_uint_string.exit45
  %.0 = phi i32 [ %54, %add_uint_string.exit45 ], [ -1, %4 ], [ -1, %7 ], [ -1, %16 ]
  ret i32 %.0
}